target datalayout = "e-m:e-p270:32:32-p271:32:32-p272:64:64-i64:64-i128:128-f80:128-n8:16:32:64-S128"
target triple = "x86_64-pc-linux-gnu"

@.str.14 = private unnamed_addr constant [27 x i8] c"../openssl/test/dtlstest.c\00", align 1
@cert = internal global ptr null, align 8
@privkey = internal global ptr null, align 8
@.str.25 = private unnamed_addr constant [117 x i8] c"create_ssl_ctx_pair(NULL, DTLS_server_method(), DTLS_client_method(), DTLS1_VERSION, 0, &sctx, &cctx, cert, privkey)\00", align 1
@.str.26 = private unnamed_addr constant [44 x i8] c"SSL_CTX_set_cipher_list(cctx, \22AES128-SHA\22)\00", align 1
@.str.27 = private unnamed_addr constant [11 x i8] c"AES128-SHA\00", align 1
@.str.50 = private unnamed_addr constant [2 x i8] c"0\00", align 1
@__const.test_swap_records.msg = private unnamed_addr constant [4 x i8] c"\00\01\02\03", align 1
@.str.55 = private unnamed_addr constant [57 x i8] c"create_ssl_objects(sctx, cctx, &sssl, &cssl, NULL, NULL)\00", align 1
@.str.56 = private unnamed_addr constant [18 x i8] c"SSL_connect(cssl)\00", align 1
@.str.57 = private unnamed_addr constant [17 x i8] c"SSL_accept(sssl)\00", align 1
@.str.58 = private unnamed_addr constant [4 x i8] c"bio\00", align 1
@.str.59 = private unnamed_addr constant [26 x i8] c"mempacket_swap_epoch(bio)\00", align 1
@.str.60 = private unnamed_addr constant [34 x i8] c"SSL_write(sssl, msg, sizeof(msg))\00", align 1
@.str.61 = private unnamed_addr constant [17 x i8] c"(int)sizeof(msg)\00", align 1
@.str.62 = private unnamed_addr constant [33 x i8] c"mempacket_move_packet(bio, 0, 1)\00", align 1
@.str.63 = private unnamed_addr constant [33 x i8] c"mempacket_move_packet(bio, 0, 2)\00", align 1
@.str.64 = private unnamed_addr constant [33 x i8] c"mempacket_move_packet(bio, 1, 2)\00", align 1
@.str.65 = private unnamed_addr constant [18 x i8] c"SSL_pending(cssl)\00", align 1
@.str.66 = private unnamed_addr constant [22 x i8] c"SSL_has_pending(cssl)\00", align 1
@.str.67 = private unnamed_addr constant [33 x i8] c"SSL_read(cssl, buf, sizeof(buf))\00", align 1

; Function Attrs: nounwind uwtable
define internal i32 @test_swap_records(i32 noundef %0) #0 {
  %2 = alloca i32, align 4
  %3 = alloca i32, align 4
  %4 = alloca ptr, align 8
  %5 = alloca ptr, align 8
  %6 = alloca ptr, align 8
  %7 = alloca ptr, align 8
  %8 = alloca i32, align 4
  %9 = alloca ptr, align 8
  %10 = alloca [4 x i8], align 1
  %11 = alloca [10 x i8], align 1
  %12 = alloca i32, align 4
  store i32 %0, ptr %3, align 4, !tbaa !9
  call void @llvm.lifetime.start.p0(i64 8, ptr %4) #5
  store ptr null, ptr %4, align 8, !tbaa !11
  call void @llvm.lifetime.start.p0(i64 8, ptr %5) #5
  store ptr null, ptr %5, align 8, !tbaa !11
  call void @llvm.lifetime.start.p0(i64 8, ptr %6) #5
  store ptr null, ptr %6, align 8, !tbaa !13
  call void @llvm.lifetime.start.p0(i64 8, ptr %7) #5
  store ptr null, ptr %7, align 8, !tbaa !13
  call void @llvm.lifetime.start.p0(i64 4, ptr %8) #5
  store i32 0, ptr %8, align 4, !tbaa !9
  call void @llvm.lifetime.start.p0(i64 8, ptr %9) #5
  call void @llvm.lifetime.start.p0(i64 4, ptr %10) #5
  call void @llvm.memcpy.p0.p0.i64(ptr align 1 %10, ptr align 1 @__const.test_swap_records.msg, i64 4, i1 false)
  call void @llvm.lifetime.start.p0(i64 10, ptr %11) #5
  %13 = call ptr @DTLS_server_method()
  %14 = call ptr @DTLS_client_method()
  %15 = load ptr, ptr @cert, align 8, !tbaa !4
  %16 = load ptr, ptr @privkey, align 8, !tbaa !4
  %17 = call i32 @create_ssl_ctx_pair(ptr noundef null, ptr noundef %13, ptr noundef %14, i32 noundef 65279, i32 noundef 0, ptr noundef %4, ptr noundef %5, ptr noundef %15, ptr noundef %16)
  %18 = icmp ne i32 %17, 0
  %19 = zext i1 %18 to i32
  %20 = call i32 @test_true(ptr noundef @.str.14, i32 noundef 490, ptr noundef @.str.25, i32 noundef %19)
  %21 = icmp ne i32 %20, 0
  br i1 %21, label %23, label %22

22:                                               ; preds = %1
  store i32 0, ptr %2, align 4
  store i32 1, ptr %12, align 4
  br label %190

23:                                               ; preds = %1
  %24 = load ptr, ptr %5, align 8, !tbaa !11
  %25 = call i32 @SSL_CTX_set_cipher_list(ptr noundef %24, ptr noundef @.str.27)
  %26 = icmp ne i32 %25, 0
  %27 = zext i1 %26 to i32
  %28 = call i32 @test_true(ptr noundef @.str.14, i32 noundef 494, ptr noundef @.str.26, i32 noundef %27)
  %29 = icmp ne i32 %28, 0
  br i1 %29, label %31, label %30

30:                                               ; preds = %23
  br label %184

31:                                               ; preds = %23
  %32 = load ptr, ptr %4, align 8, !tbaa !11
  %33 = load ptr, ptr %5, align 8, !tbaa !11
  %34 = call i32 @create_ssl_objects(ptr noundef %32, ptr noundef %33, ptr noundef %6, ptr noundef %7, ptr noundef null, ptr noundef null)
  %35 = icmp ne i32 %34, 0
  %36 = zext i1 %35 to i32
  %37 = call i32 @test_true(ptr noundef @.str.14, i32 noundef 505, ptr noundef @.str.55, i32 noundef %36)
  %38 = icmp ne i32 %37, 0
  br i1 %38, label %40, label %39

39:                                               ; preds = %31
  br label %184

40:                                               ; preds = %31
  %41 = load ptr, ptr %7, align 8, !tbaa !13
  %42 = call i32 @SSL_connect(ptr noundef %41)
  %43 = call i32 @test_int_le(ptr noundef @.str.14, i32 noundef 509, ptr noundef @.str.56, ptr noundef @.str.50, i32 noundef %42, i32 noundef 0)
  %44 = icmp ne i32 %43, 0
  br i1 %44, label %46, label %45

45:                                               ; preds = %40
  br label %184

46:                                               ; preds = %40
  %47 = load ptr, ptr %6, align 8, !tbaa !13
  %48 = call i32 @SSL_accept(ptr noundef %47)
  %49 = call i32 @test_int_le(ptr noundef @.str.14, i32 noundef 513, ptr noundef @.str.57, ptr noundef @.str.50, i32 noundef %48, i32 noundef 0)
  %50 = icmp ne i32 %49, 0
  br i1 %50, label %52, label %51

51:                                               ; preds = %46
  br label %184

52:                                               ; preds = %46
  %53 = load ptr, ptr %7, align 8, !tbaa !13
  %54 = call i32 @SSL_connect(ptr noundef %53)
  %55 = call i32 @test_int_le(ptr noundef @.str.14, i32 noundef 517, ptr noundef @.str.56, ptr noundef @.str.50, i32 noundef %54, i32 noundef 0)
  %56 = icmp ne i32 %55, 0
  br i1 %56, label %58, label %57

57:                                               ; preds = %52
  br label %184

58:                                               ; preds = %52
  %59 = load i32, ptr %3, align 4, !tbaa !9
  %60 = icmp eq i32 %59, 0
  br i1 %60, label %61, label %76

61:                                               ; preds = %58
  %62 = load ptr, ptr %7, align 8, !tbaa !13
  %63 = call ptr @SSL_get_wbio(ptr noundef %62)
  store ptr %63, ptr %9, align 8, !tbaa !15
  %64 = load ptr, ptr %9, align 8, !tbaa !15
  %65 = call i32 @test_ptr(ptr noundef @.str.14, i32 noundef 523, ptr noundef @.str.58, ptr noundef %64)
  %66 = icmp ne i32 %65, 0
  br i1 %66, label %67, label %74

67:                                               ; preds = %61
  %68 = load ptr, ptr %9, align 8, !tbaa !15
  %69 = call i32 @mempacket_swap_epoch(ptr noundef %68)
  %70 = icmp ne i32 %69, 0
  %71 = zext i1 %70 to i32
  %72 = call i32 @test_true(ptr noundef @.str.14, i32 noundef 524, ptr noundef @.str.59, i32 noundef %71)
  %73 = icmp ne i32 %72, 0
  br i1 %73, label %75, label %74

74:                                               ; preds = %67, %61
  br label %184

75:                                               ; preds = %67
  br label %76

76:                                               ; preds = %75, %58
  %77 = load ptr, ptr %6, align 8, !tbaa !13
  %78 = call i32 @SSL_accept(ptr noundef %77)
  %79 = call i32 @test_int_gt(ptr noundef @.str.14, i32 noundef 529, ptr noundef @.str.57, ptr noundef @.str.50, i32 noundef %78, i32 noundef 0)
  %80 = icmp ne i32 %79, 0
  br i1 %80, label %82, label %81

81:                                               ; preds = %76
  br label %184

82:                                               ; preds = %76
  %83 = load ptr, ptr %6, align 8, !tbaa !13
  %84 = getelementptr inbounds [4 x i8], ptr %10, i64 0, i64 0
  %85 = call i32 @SSL_write(ptr noundef %83, ptr noundef %84, i32 noundef 4)
  %86 = call i32 @test_int_eq(ptr noundef @.str.14, i32 noundef 533, ptr noundef @.str.60, ptr noundef @.str.61, i32 noundef %85, i32 noundef 4)
  %87 = icmp ne i32 %86, 0
  br i1 %87, label %89, label %88

88:                                               ; preds = %82
  br label %184

89:                                               ; preds = %82
  %90 = load ptr, ptr %6, align 8, !tbaa !13
  %91 = call ptr @SSL_get_wbio(ptr noundef %90)
  store ptr %91, ptr %9, align 8, !tbaa !15
  %92 = load ptr, ptr %9, align 8, !tbaa !15
  %93 = call i32 @test_ptr(ptr noundef @.str.14, i32 noundef 537, ptr noundef @.str.58, ptr noundef %92)
  %94 = icmp ne i32 %93, 0
  br i1 %94, label %96, label %95

95:                                               ; preds = %89
  br label %184

96:                                               ; preds = %89
  %97 = load i32, ptr %3, align 4, !tbaa !9
  %98 = icmp eq i32 %97, 1
  br i1 %98, label %99, label %108

99:                                               ; preds = %96
  %100 = load ptr, ptr %9, align 8, !tbaa !15
  %101 = call i32 @mempacket_move_packet(ptr noundef %100, i32 noundef 0, i32 noundef 1)
  %102 = icmp ne i32 %101, 0
  %103 = zext i1 %102 to i32
  %104 = call i32 @test_true(ptr noundef @.str.14, i32 noundef 541, ptr noundef @.str.62, i32 noundef %103)
  %105 = icmp ne i32 %104, 0
  br i1 %105, label %107, label %106

106:                                              ; preds = %99
  br label %184

107:                                              ; preds = %99
  br label %136

108:                                              ; preds = %96
  %109 = load i32, ptr %3, align 4, !tbaa !9
  %110 = icmp eq i32 %109, 2
  br i1 %110, label %111, label %120

111:                                              ; preds = %108
  %112 = load ptr, ptr %9, align 8, !tbaa !15
  %113 = call i32 @mempacket_move_packet(ptr noundef %112, i32 noundef 0, i32 noundef 2)
  %114 = icmp ne i32 %113, 0
  %115 = zext i1 %114 to i32
  %116 = call i32 @test_true(ptr noundef @.str.14, i32 noundef 545, ptr noundef @.str.63, i32 noundef %115)
  %117 = icmp ne i32 %116, 0
  br i1 %117, label %119, label %118

118:                                              ; preds = %111
  br label %184

119:                                              ; preds = %111
  br label %135

120:                                              ; preds = %108
  %121 = load i32, ptr %3, align 4, !tbaa !9
  %122 = icmp eq i32 %121, 3
  br i1 %122, label %123, label %134

123:                                              ; preds = %120
  %124 = load ptr, ptr %6, align 8, !tbaa !13
  %125 = call ptr @SSL_get_wbio(ptr noundef %124)
  store ptr %125, ptr %9, align 8, !tbaa !15
  %126 = load ptr, ptr %9, align 8, !tbaa !15
  %127 = call i32 @mempacket_move_packet(ptr noundef %126, i32 noundef 1, i32 noundef 2)
  %128 = icmp ne i32 %127, 0
  %129 = zext i1 %128 to i32
  %130 = call i32 @test_true(ptr noundef @.str.14, i32 noundef 550, ptr noundef @.str.64, i32 noundef %129)
  %131 = icmp ne i32 %130, 0
  br i1 %131, label %133, label %132

132:                                              ; preds = %123
  br label %184

133:                                              ; preds = %123
  br label %134

134:                                              ; preds = %133, %120
  br label %135

135:                                              ; preds = %134, %119
  br label %136

136:                                              ; preds = %135, %107
  %137 = load ptr, ptr %7, align 8, !tbaa !13
  %138 = call i32 @SSL_connect(ptr noundef %137)
  %139 = call i32 @test_int_gt(ptr noundef @.str.14, i32 noundef 558, ptr noundef @.str.56, ptr noundef @.str.50, i32 noundef %138, i32 noundef 0)
  %140 = icmp ne i32 %139, 0
  br i1 %140, label %142, label %141

141:                                              ; preds = %136
  br label %184

142:                                              ; preds = %136
  %143 = load i32, ptr %3, align 4, !tbaa !9
  %144 = icmp eq i32 %143, 0
  br i1 %144, label %148, label %145

145:                                              ; preds = %142
  %146 = load i32, ptr %3, align 4, !tbaa !9
  %147 = icmp eq i32 %146, 1
  br i1 %147, label %148, label %162

148:                                              ; preds = %145, %142
  %149 = load ptr, ptr %7, align 8, !tbaa !13
  %150 = call i32 @SSL_pending(ptr noundef %149)
  %151 = call i32 @test_int_eq(ptr noundef @.str.14, i32 noundef 563, ptr noundef @.str.65, ptr noundef @.str.50, i32 noundef %150, i32 noundef 0)
  %152 = icmp ne i32 %151, 0
  br i1 %152, label %153, label %160

153:                                              ; preds = %148
  %154 = load ptr, ptr %7, align 8, !tbaa !13
  %155 = call i32 @SSL_has_pending(ptr noundef %154)
  %156 = icmp ne i32 %155, 0
  %157 = zext i1 %156 to i32
  %158 = call i32 @test_false(ptr noundef @.str.14, i32 noundef 564, ptr noundef @.str.66, i32 noundef %157)
  %159 = icmp ne i32 %158, 0
  br i1 %159, label %161, label %160

160:                                              ; preds = %153, %148
  br label %184

161:                                              ; preds = %153
  br label %176

162:                                              ; preds = %145
  %163 = load ptr, ptr %7, align 8, !tbaa !13
  %164 = call i32 @SSL_pending(ptr noundef %163)
  %165 = call i32 @test_int_eq(ptr noundef @.str.14, i32 noundef 569, ptr noundef @.str.65, ptr noundef @.str.61, i32 noundef %164, i32 noundef 4)
  %166 = icmp ne i32 %165, 0
  br i1 %166, label %167, label %174

167:                                              ; preds = %162
  %168 = load ptr, ptr %7, align 8, !tbaa !13
  %169 = call i32 @SSL_has_pending(ptr noundef %168)
  %170 = icmp ne i32 %169, 0
  %171 = zext i1 %170 to i32
  %172 = call i32 @test_true(ptr noundef @.str.14, i32 noundef 570, ptr noundef @.str.66, i32 noundef %171)
  %173 = icmp ne i32 %172, 0
  br i1 %173, label %175, label %174

174:                                              ; preds = %167, %162
  br label %184

175:                                              ; preds = %167
  br label %176

176:                                              ; preds = %175, %161
  %177 = load ptr, ptr %7, align 8, !tbaa !13
  %178 = getelementptr inbounds [10 x i8], ptr %11, i64 0, i64 0
  %179 = call i32 @SSL_read(ptr noundef %177, ptr noundef %178, i32 noundef 10)
  %180 = call i32 @test_int_eq(ptr noundef @.str.14, i32 noundef 577, ptr noundef @.str.67, ptr noundef @.str.61, i32 noundef %179, i32 noundef 4)
  %181 = icmp ne i32 %180, 0
  br i1 %181, label %183, label %182

182:                                              ; preds = %176
  br label %184

183:                                              ; preds = %176
  store i32 1, ptr %8, align 4, !tbaa !9
  br label %184

184:                                              ; preds = %183, %182, %174, %160, %141, %132, %118, %106, %95, %88, %81, %74, %57, %51, %45, %39, %30
  %185 = load ptr, ptr %7, align 8, !tbaa !13
  call void @SSL_free(ptr noundef %185)
  %186 = load ptr, ptr %6, align 8, !tbaa !13
  call void @SSL_free(ptr noundef %186)
  %187 = load ptr, ptr %5, align 8, !tbaa !11
  call void @SSL_CTX_free(ptr noundef %187)
  %188 = load ptr, ptr %4, align 8, !tbaa !11
  call void @SSL_CTX_free(ptr noundef %188)
  %189 = load i32, ptr %8, align 4, !tbaa !9
  store i32 %189, ptr %2, align 4
  store i32 1, ptr %12, align 4
  br label %190

190:                                              ; preds = %184, %22
  call void @llvm.lifetime.end.p0(i64 10, ptr %11) #5
  call void @llvm.lifetime.end.p0(i64 4, ptr %10) #5
  call void @llvm.lifetime.end.p0(i64 8, ptr %9) #5
  call void @llvm.lifetime.end.p0(i64 4, ptr %8) #5
  call void @llvm.lifetime.end.p0(i64 8, ptr %7) #5
  call void @llvm.lifetime.end.p0(i64 8, ptr %6) #5
  call void @llvm.lifetime.end.p0(i64 8, ptr %5) #5
  call void @llvm.lifetime.end.p0(i64 8, ptr %4) #5
  %191 = load i32, ptr %2, align 4
  ret i32 %191
}