; Function Attrs: nounwind uwtable
define internal range(i32 0, 2) i32 @test_swap_records(i32 noundef %0) #1 {
  %2 = alloca ptr, align 8
  %3 = alloca ptr, align 8
  %4 = alloca ptr, align 8
  %5 = alloca ptr, align 8
  %6 = alloca [4 x i8], align 4
  %7 = alloca [10 x i8], align 1
  call void @llvm.lifetime.start.p0(i64 8, ptr nonnull %2) #8
  store ptr null, ptr %2, align 8, !tbaa !9
  call void @llvm.lifetime.start.p0(i64 8, ptr nonnull %3) #8
  store ptr null, ptr %3, align 8, !tbaa !9
  call void @llvm.lifetime.start.p0(i64 8, ptr nonnull %4) #8
  store ptr null, ptr %4, align 8, !tbaa !11
  call void @llvm.lifetime.start.p0(i64 8, ptr nonnull %5) #8
  store ptr null, ptr %5, align 8, !tbaa !11
  call void @llvm.lifetime.start.p0(i64 4, ptr nonnull %6) #8
  store i32 50462976, ptr %6, align 4
  call void @llvm.lifetime.start.p0(i64 10, ptr nonnull %7) #8
  %8 = tail call ptr @DTLS_server_method() #8
  %9 = tail call ptr @DTLS_client_method() #8
  %10 = load ptr, ptr @cert, align 8, !tbaa !4
  %11 = load ptr, ptr @privkey, align 8, !tbaa !4
  %12 = call i32 @create_ssl_ctx_pair(ptr noundef null, ptr noundef %8, ptr noundef %9, i32 noundef 65279, i32 noundef 0, ptr noundef nonnull %2, ptr noundef nonnull %3, ptr noundef %10, ptr noundef %11) #8
  %13 = icmp ne i32 %12, 0
  %14 = zext i1 %13 to i32
  %15 = call i32 @test_true(ptr noundef nonnull @.str.14, i32 noundef 490, ptr noundef nonnull @.str.25, i32 noundef %14) #8
  %.not = icmp eq i32 %15, 0
  br i1 %.not, label %114, label %16

16:                                               ; preds = %1
  %17 = load ptr, ptr %3, align 8, !tbaa !9
  %18 = call i32 @SSL_CTX_set_cipher_list(ptr noundef %17, ptr noundef nonnull @.str.27) #8
  %19 = icmp ne i32 %18, 0
  %20 = zext i1 %19 to i32
  %21 = call i32 @test_true(ptr noundef nonnull @.str.14, i32 noundef 494, ptr noundef nonnull @.str.26, i32 noundef %20) #8
  %.not16 = icmp eq i32 %21, 0
  br i1 %.not16, label %109, label %22

22:                                               ; preds = %16
  %23 = load ptr, ptr %2, align 8, !tbaa !9
  %24 = load ptr, ptr %3, align 8, !tbaa !9
  %25 = call i32 @create_ssl_objects(ptr noundef %23, ptr noundef %24, ptr noundef nonnull %4, ptr noundef nonnull %5, ptr noundef null, ptr noundef null) #8
  %26 = icmp ne i32 %25, 0
  %27 = zext i1 %26 to i32
  %28 = call i32 @test_true(ptr noundef nonnull @.str.14, i32 noundef 505, ptr noundef nonnull @.str.55, i32 noundef %27) #8
  %.not17 = icmp eq i32 %28, 0
  br i1 %.not17, label %109, label %29

29:                                               ; preds = %22
  %30 = load ptr, ptr %5, align 8, !tbaa !11
  %31 = call i32 @SSL_connect(ptr noundef %30) #8
  %32 = call i32 @test_int_le(ptr noundef nonnull @.str.14, i32 noundef 509, ptr noundef nonnull @.str.56, ptr noundef nonnull @.str.50, i32 noundef %31, i32 noundef 0) #8
  %.not18 = icmp eq i32 %32, 0
  br i1 %.not18, label %109, label %33

33:                                               ; preds = %29
  %34 = load ptr, ptr %4, align 8, !tbaa !11
  %35 = call i32 @SSL_accept(ptr noundef %34) #8
  %36 = call i32 @test_int_le(ptr noundef nonnull @.str.14, i32 noundef 513, ptr noundef nonnull @.str.57, ptr noundef nonnull @.str.50, i32 noundef %35, i32 noundef 0) #8
  %.not19 = icmp eq i32 %36, 0
  br i1 %.not19, label %109, label %37

37:                                               ; preds = %33
  %38 = load ptr, ptr %5, align 8, !tbaa !11
  %39 = call i32 @SSL_connect(ptr noundef %38) #8
  %40 = call i32 @test_int_le(ptr noundef nonnull @.str.14, i32 noundef 517, ptr noundef nonnull @.str.56, ptr noundef nonnull @.str.50, i32 noundef %39, i32 noundef 0) #8
  %.not20 = icmp eq i32 %40, 0
  br i1 %.not20, label %109, label %41

41:                                               ; preds = %37
  %42 = icmp eq i32 %0, 0
  br i1 %42, label %43, label %52

43:                                               ; preds = %41
  %44 = load ptr, ptr %5, align 8, !tbaa !11
  %45 = call ptr @SSL_get_wbio(ptr noundef %44) #8
  %46 = call i32 @test_ptr(ptr noundef nonnull @.str.14, i32 noundef 523, ptr noundef nonnull @.str.58, ptr noundef %45) #8
  %.not21 = icmp eq i32 %46, 0
  br i1 %.not21, label %109, label %47

47:                                               ; preds = %43
  %48 = call i32 @mempacket_swap_epoch(ptr noundef %45) #8
  %49 = icmp ne i32 %48, 0
  %50 = zext i1 %49 to i32
  %51 = call i32 @test_true(ptr noundef nonnull @.str.14, i32 noundef 524, ptr noundef nonnull @.str.59, i32 noundef %50) #8
  %.not22 = icmp eq i32 %51, 0
  br i1 %.not22, label %109, label %52

52:                                               ; preds = %47, %41
  %53 = load ptr, ptr %4, align 8, !tbaa !11
  %54 = call i32 @SSL_accept(ptr noundef %53) #8
  %55 = call i32 @test_int_gt(ptr noundef nonnull @.str.14, i32 noundef 529, ptr noundef nonnull @.str.57, ptr noundef nonnull @.str.50, i32 noundef %54, i32 noundef 0) #8
  %.not23 = icmp eq i32 %55, 0
  br i1 %.not23, label %109, label %56

56:                                               ; preds = %52
  %57 = load ptr, ptr %4, align 8, !tbaa !11
  %58 = call i32 @SSL_write(ptr noundef %57, ptr noundef nonnull %6, i32 noundef 4) #8
  %59 = call i32 @test_int_eq(ptr noundef nonnull @.str.14, i32 noundef 533, ptr noundef nonnull @.str.60, ptr noundef nonnull @.str.61, i32 noundef %58, i32 noundef 4) #8
  %.not24 = icmp eq i32 %59, 0
  br i1 %.not24, label %109, label %60

60:                                               ; preds = %56
  %61 = load ptr, ptr %4, align 8, !tbaa !11
  %62 = call ptr @SSL_get_wbio(ptr noundef %61) #8
  %63 = call i32 @test_ptr(ptr noundef nonnull @.str.14, i32 noundef 537, ptr noundef nonnull @.str.58, ptr noundef %62) #8
  %.not25 = icmp eq i32 %63, 0
  br i1 %.not25, label %109, label %64

64:                                               ; preds = %60
  switch i32 %0, label %82 [
    i32 1, label %65
    i32 2, label %70
    i32 3, label %75
  ]

65:                                               ; preds = %64
  %66 = call i32 @mempacket_move_packet(ptr noundef %62, i32 noundef 0, i32 noundef 1) #8
  %67 = icmp ne i32 %66, 0
  %68 = zext i1 %67 to i32
  %69 = call i32 @test_true(ptr noundef nonnull @.str.14, i32 noundef 541, ptr noundef nonnull @.str.62, i32 noundef %68) #8
  %.not28 = icmp eq i32 %69, 0
  br i1 %.not28, label %109, label %82

70:                                               ; preds = %64
  %71 = call i32 @mempacket_move_packet(ptr noundef %62, i32 noundef 0, i32 noundef 2) #8
  %72 = icmp ne i32 %71, 0
  %73 = zext i1 %72 to i32
  %74 = call i32 @test_true(ptr noundef nonnull @.str.14, i32 noundef 545, ptr noundef nonnull @.str.63, i32 noundef %73) #8
  %.not27 = icmp eq i32 %74, 0
  br i1 %.not27, label %109, label %82

75:                                               ; preds = %64
  %76 = load ptr, ptr %4, align 8, !tbaa !11
  %77 = call ptr @SSL_get_wbio(ptr noundef %76) #8
  %78 = call i32 @mempacket_move_packet(ptr noundef %77, i32 noundef 1, i32 noundef 2) #8
  %79 = icmp ne i32 %78, 0
  %80 = zext i1 %79 to i32
  %81 = call i32 @test_true(ptr noundef nonnull @.str.14, i32 noundef 550, ptr noundef nonnull @.str.64, i32 noundef %80) #8
  %.not26 = icmp eq i32 %81, 0
  br i1 %.not26, label %109, label %82

82:                                               ; preds = %64, %70, %75, %65
  %83 = load ptr, ptr %5, align 8, !tbaa !11
  %84 = call i32 @SSL_connect(ptr noundef %83) #8
  %85 = call i32 @test_int_gt(ptr noundef nonnull @.str.14, i32 noundef 558, ptr noundef nonnull @.str.56, ptr noundef nonnull @.str.50, i32 noundef %84, i32 noundef 0) #8
  %.not29 = icmp eq i32 %85, 0
  br i1 %.not29, label %109, label %86

86:                                               ; preds = %82
  %or.cond = icmp ult i32 %0, 2
  %87 = load ptr, ptr %5, align 8, !tbaa !11
  %88 = call i32 @SSL_pending(ptr noundef %87) #8
  br i1 %or.cond, label %89, label %97

89:                                               ; preds = %86
  %90 = call i32 @test_int_eq(ptr noundef nonnull @.str.14, i32 noundef 563, ptr noundef nonnull @.str.65, ptr noundef nonnull @.str.50, i32 noundef %88, i32 noundef 0) #8
  %.not32 = icmp eq i32 %90, 0
  br i1 %.not32, label %109, label %91

91:                                               ; preds = %89
  %92 = load ptr, ptr %5, align 8, !tbaa !11
  %93 = call i32 @SSL_has_pending(ptr noundef %92) #8
  %94 = icmp ne i32 %93, 0
  %95 = zext i1 %94 to i32
  %96 = call i32 @test_false(ptr noundef nonnull @.str.14, i32 noundef 564, ptr noundef nonnull @.str.66, i32 noundef %95) #8
  %.not33 = icmp eq i32 %96, 0
  br i1 %.not33, label %109, label %105

97:                                               ; preds = %86
  %98 = call i32 @test_int_eq(ptr noundef nonnull @.str.14, i32 noundef 569, ptr noundef nonnull @.str.65, ptr noundef nonnull @.str.61, i32 noundef %88, i32 noundef 4) #8
  %.not30 = icmp eq i32 %98, 0
  br i1 %.not30, label %109, label %99

99:                                               ; preds = %97
  %100 = load ptr, ptr %5, align 8, !tbaa !11
  %101 = call i32 @SSL_has_pending(ptr noundef %100) #8
  %102 = icmp ne i32 %101, 0
  %103 = zext i1 %102 to i32
  %104 = call i32 @test_true(ptr noundef nonnull @.str.14, i32 noundef 570, ptr noundef nonnull @.str.66, i32 noundef %103) #8
  %.not31 = icmp eq i32 %104, 0
  br i1 %.not31, label %109, label %105

105:                                              ; preds = %99, %91
  %106 = load ptr, ptr %5, align 8, !tbaa !11
  %107 = call i32 @SSL_read(ptr noundef %106, ptr noundef nonnull %7, i32 noundef 10) #8
  %108 = call i32 @test_int_eq(ptr noundef nonnull @.str.14, i32 noundef 577, ptr noundef nonnull @.str.67, ptr noundef nonnull @.str.61, i32 noundef %107, i32 noundef 4) #8
  %.not34 = icmp ne i32 %108, 0
  %spec.select = zext i1 %.not34 to i32
  br label %109

109:                                              ; preds = %105, %97, %99, %89, %91, %82, %75, %70, %65, %60, %56, %52, %43, %47, %37, %33, %29, %22, %16
  %.0 = phi i32 [ 0, %91 ], [ 0, %89 ], [ 0, %99 ], [ 0, %97 ], [ 0, %82 ], [ 0, %65 ], [ 0, %70 ], [ 0, %75 ], [ 0, %60 ], [ 0, %56 ], [ 0, %52 ], [ 0, %47 ], [ 0, %43 ], [ 0, %37 ], [ 0, %33 ], [ 0, %29 ], [ 0, %22 ], [ 0, %16 ], [ %spec.select, %105 ]
  %110 = load ptr, ptr %5, align 8, !tbaa !11
  call void @SSL_free(ptr noundef %110) #8
  %111 = load ptr, ptr %4, align 8, !tbaa !11
  call void @SSL_free(ptr noundef %111) #8
  %112 = load ptr, ptr %3, align 8, !tbaa !9
  call void @SSL_CTX_free(ptr noundef %112) #8
  %113 = load ptr, ptr %2, align 8, !tbaa !9
  call void @SSL_CTX_free(ptr noundef %113) #8
  br label %114

114:                                              ; preds = %1, %109
  %.014 = phi i32 [ %.0, %109 ], [ 0, %1 ]
  call void @llvm.lifetime.end.p0(i64 10, ptr nonnull %7) #8
  call void @llvm.lifetime.end.p0(i64 4, ptr nonnull %6) #8
  call void @llvm.lifetime.end.p0(i64 8, ptr nonnull %5) #8
  call void @llvm.lifetime.end.p0(i64 8, ptr nonnull %4) #8
  call void @llvm.lifetime.end.p0(i64 8, ptr nonnull %3) #8
  call void @llvm.lifetime.end.p0(i64 8, ptr nonnull %2) #8
  ret i32 %.014
}